; Function Attrs: mustprogress nounwind uwtable
define dso_local noundef zeroext i1 @_ZN4llvm26GenericConvergenceVerifierINS_17GenericSSAContextINS_8FunctionEEEE12isConvergentERKNS_11InstructionE(ptr noundef nonnull align 8 dereferenceable(72) %0) local_unnamed_addr #0 align 2 {
  %2 = load i8, ptr %0, align 8
  switch i8 %2, label %_ZNK4llvm8CallBase12isConvergentEv.exit [
    i8 85, label %_ZN4llvm8dyn_castINS_8CallBaseEKNS_11InstructionEEEDcPT0_.exit
    i8 34, label %_ZN4llvm8dyn_castINS_8CallBaseEKNS_11InstructionEEEDcPT0_.exit
    i8 40, label %_ZN4llvm8dyn_castINS_8CallBaseEKNS_11InstructionEEEDcPT0_.exit
  ]

_ZN4llvm8dyn_castINS_8CallBaseEKNS_11InstructionEEEDcPT0_.exit: ; preds = %1, %1, %1
  %3 = getelementptr inbounds nuw i8, ptr %0, i64 72
  %4 = tail call noundef zeroext i1 @_ZNK4llvm13AttributeList9hasFnAttrENS_9Attribute8AttrKindE(ptr noundef nonnull align 8 dereferenceable(8) %3, i32 noundef 6) #12
  br i1 %4, label %_ZNK4llvm8CallBase12isConvergentEv.exit, label %5

5:                                                ; preds = %_ZN4llvm8dyn_castINS_8CallBaseEKNS_11InstructionEEEDcPT0_.exit
  %6 = tail call noundef zeroext i1 @_ZNK4llvm8CallBase25hasFnAttrOnCalledFunctionENS_9Attribute8AttrKindE(ptr noundef nonnull align 8 dereferenceable(88) %0, i32 noundef 6) #12
  br label %_ZNK4llvm8CallBase12isConvergentEv.exit

_ZNK4llvm8CallBase12isConvergentEv.exit:          ; preds = %1, %5, %_ZN4llvm8dyn_castINS_8CallBaseEKNS_11InstructionEEEDcPT0_.exit
  %.0 = phi i1 [ %6, %5 ], [ true, %_ZN4llvm8dyn_castINS_8CallBaseEKNS_11InstructionEEEDcPT0_.exit ], [ false, %1 ]
  ret i1 %.0
}